; Function Attrs: nounwind uwtable
define ptr @l_Lake_instFromJsonSemVerCore(ptr noundef %0) local_unnamed_addr #0 {
  %2 = tail call ptr @l_Lean_Json_getStr_x3f(ptr noundef %0) #5
  %3 = ptrtoint ptr %2 to i64
  %4 = and i64 %3, 1
  %.not.i24 = icmp eq i64 %4, 0
  br i1 %.not.i24, label %8, label %5

5:                                                ; preds = %1
  %6 = lshr i64 %3, 1
  %7 = trunc i64 %6 to i32
  br label %lean_obj_tag.exit

8:                                                ; preds = %1
  %9 = getelementptr i8, ptr %2, i64 4
  %.val.i = load i32, ptr %9, align 4
  %10 = lshr i32 %.val.i, 24
  br label %lean_obj_tag.exit

lean_obj_tag.exit:                                ; preds = %5, %8
  %.0.i = phi i32 [ %7, %5 ], [ %10, %8 ]
  %11 = icmp eq i32 %.0.i, 0
  br i1 %11, label %12, label %37

12:                                               ; preds = %lean_obj_tag.exit
  %.val = load i32, ptr %2, align 4, !tbaa !8
  %13 = icmp eq i32 %.val, 1
  br i1 %13, label %lean_dec.exit, label %14

14:                                               ; preds = %12
  %15 = getelementptr inbounds nuw i8, ptr %2, i64 8
  %16 = load ptr, ptr %15, align 8, !tbaa !4
  %17 = ptrtoint ptr %16 to i64
  %18 = and i64 %17, 1
  %.not31 = icmp eq i64 %18, 0
  br i1 %.not31, label %19, label %lean_inc.exit17

19:                                               ; preds = %14
  %.val.i25 = load i32, ptr %16, align 4, !tbaa !8
  %20 = icmp sgt i32 %.val.i25, 0
  br i1 %20, label %21, label %23, !prof !11

21:                                               ; preds = %19
  %22 = add nuw i32 %.val.i25, 1
  store i32 %22, ptr %16, align 4, !tbaa !8
  br label %lean_inc.exit17

23:                                               ; preds = %19
  %.not.i26 = icmp eq i32 %.val.i25, 0
  br i1 %.not.i26, label %lean_inc.exit17, label %24

24:                                               ; preds = %23
  tail call void @lean_inc_ref_cold(ptr noundef nonnull %16) #5
  br label %lean_inc.exit17

lean_inc.exit17:                                  ; preds = %24, %23, %21, %14
  br i1 %.not.i24, label %25, label %lean_dec.exit19

25:                                               ; preds = %lean_inc.exit17
  %26 = load i32, ptr %2, align 4, !tbaa !8
  %27 = icmp sgt i32 %26, 1
  br i1 %27, label %28, label %30, !prof !11

28:                                               ; preds = %25
  %29 = add nsw i32 %26, -1
  store i32 %29, ptr %2, align 4, !tbaa !8
  br label %lean_dec.exit19

30:                                               ; preds = %25
  %.not.i = icmp eq i32 %26, 0
  br i1 %.not.i, label %lean_dec.exit19, label %31

31:                                               ; preds = %30
  tail call void @lean_dec_ref_cold(ptr noundef nonnull %2) #5
  br label %lean_dec.exit19

lean_dec.exit19:                                  ; preds = %31, %30, %28, %lean_inc.exit17
  tail call void @lean_inc_heartbeat() #5
  %32 = tail call noalias ptr @mi_malloc_small(i64 noundef 16) #5
  %33 = icmp eq ptr %32, null
  br i1 %33, label %34, label %lean_alloc_ctor.exit

34:                                               ; preds = %lean_dec.exit19
  tail call void @lean_internal_panic_out_of_memory() #6
  unreachable

lean_alloc_ctor.exit:                             ; preds = %lean_dec.exit19
  %35 = getelementptr inbounds nuw i8, ptr %32, i64 4
  store i32 1, ptr %32, align 4, !tbaa !8
  store i32 65552, ptr %35, align 4
  %36 = getelementptr inbounds nuw i8, ptr %32, i64 8
  store ptr %16, ptr %36, align 8, !tbaa !4
  br label %lean_dec.exit

37:                                               ; preds = %lean_obj_tag.exit
  %38 = getelementptr inbounds nuw i8, ptr %2, i64 8
  %39 = load ptr, ptr %38, align 8, !tbaa !4
  %40 = ptrtoint ptr %39 to i64
  %41 = and i64 %40, 1
  %.not = icmp eq i64 %41, 0
  br i1 %.not, label %42, label %lean_inc.exit

42:                                               ; preds = %37
  %.val.i27 = load i32, ptr %39, align 4, !tbaa !8
  %43 = icmp sgt i32 %.val.i27, 0
  br i1 %43, label %44, label %46, !prof !11

44:                                               ; preds = %42
  %45 = add nuw i32 %.val.i27, 1
  store i32 %45, ptr %39, align 4, !tbaa !8
  br label %lean_inc.exit

46:                                               ; preds = %42
  %.not.i28 = icmp eq i32 %.val.i27, 0
  br i1 %.not.i28, label %lean_inc.exit, label %47

47:                                               ; preds = %46
  tail call void @lean_inc_ref_cold(ptr noundef nonnull %39) #5
  br label %lean_inc.exit

lean_inc.exit:                                    ; preds = %47, %46, %44, %37
  br i1 %.not.i24, label %48, label %lean_dec.exit18

48:                                               ; preds = %lean_inc.exit
  %49 = load i32, ptr %2, align 4, !tbaa !8
  %50 = icmp sgt i32 %49, 1
  br i1 %50, label %51, label %53, !prof !11

51:                                               ; preds = %48
  %52 = add nsw i32 %49, -1
  store i32 %52, ptr %2, align 4, !tbaa !8
  br label %lean_dec.exit18

53:                                               ; preds = %48
  %.not.i20 = icmp eq i32 %49, 0
  br i1 %.not.i20, label %lean_dec.exit18, label %54

54:                                               ; preds = %53
  tail call void @lean_dec_ref_cold(ptr noundef nonnull %2) #5
  br label %lean_dec.exit18

lean_dec.exit18:                                  ; preds = %54, %53, %51, %lean_inc.exit
  %55 = tail call ptr @l_Lake_SemVerCore_parse(ptr noundef %39)
  br i1 %.not, label %56, label %lean_dec.exit

56:                                               ; preds = %lean_dec.exit18
  %57 = load i32, ptr %39, align 4, !tbaa !8
  %58 = icmp sgt i32 %57, 1
  br i1 %58, label %59, label %61, !prof !11

59:                                               ; preds = %56
  %60 = add nsw i32 %57, -1
  store i32 %60, ptr %39, align 4, !tbaa !8
  br label %lean_dec.exit

61:                                               ; preds = %56
  %.not.i22 = icmp eq i32 %57, 0
  br i1 %.not.i22, label %lean_dec.exit, label %62

62:                                               ; preds = %61
  tail call void @lean_dec_ref_cold(ptr noundef nonnull %39) #5
  br label %lean_dec.exit

lean_dec.exit:                                    ; preds = %lean_dec.exit18, %59, %61, %62, %lean_alloc_ctor.exit, %12
  %.1 = phi ptr [ %32, %lean_alloc_ctor.exit ], [ %2, %12 ], [ %55, %62 ], [ %55, %61 ], [ %55, %59 ], [ %55, %lean_dec.exit18 ]
  ret ptr %.1
}